target datalayout = "e-m:e-p270:32:32-p271:32:32-p272:64:64-i64:64-i128:128-f80:128-n8:16:32:64-S128"
target triple = "x86_64-pc-linux-gnu"

%"class.std::__cxx11::basic_string" = type { %"struct.std::__cxx11::basic_string<char>::_Alloc_hider", i64, %union.anon }
%"struct.std::__cxx11::basic_string<char>::_Alloc_hider" = type { ptr }
%union.anon = type { i64, [8 x i8] }

@.str = private unnamed_addr constant [35 x i8] c"encountered dangling symbolic link\00", align 1

; Function Attrs: mustprogress uwtable
define internal void @_ZN32pxrInternal_v0_24__pxrReserved__12_GLOBAL__N_19_GetErrorEPNSt7__cxx1112basic_stringIcSt11char_traitsIcESaIcEEE(ptr noundef %0) #0 {
  %2 = alloca ptr, align 8
  %3 = alloca %"class.std::__cxx11::basic_string", align 8
  store ptr %0, ptr %2, align 8
  %4 = load ptr, ptr %2, align 8
  %5 = call noundef zeroext i1 @_ZNKSt7__cxx1112basic_stringIcSt11char_traitsIcESaIcEE5emptyEv(ptr noundef nonnull align 8 dereferenceable(32) %4) #5
  br i1 %5, label %6, label %15

6:                                                ; preds = %1
  %7 = call ptr @__errno_location() #14
  %8 = load i32, ptr %7, align 4
  %9 = icmp ne i32 %8, 0
  br i1 %9, label %10, label %11

10:                                               ; preds = %6
  call void @_ZN32pxrInternal_v0_24__pxrReserved__12ArchStrerrorB5cxx11Ev(ptr dead_on_unwind writable sret(%"class.std::__cxx11::basic_string") align 8 %3)
  br label %12

11:                                               ; preds = %6
  call void @_ZNSt7__cxx1112basic_stringIcSt11char_traitsIcESaIcEEC1Ev(ptr noundef nonnull align 8 dereferenceable(32) %3) #5
  br label %12

12:                                               ; preds = %11, %10
  %13 = load ptr, ptr %2, align 8
  %14 = call noundef nonnull align 8 dereferenceable(32) ptr @_ZNSt7__cxx1112basic_stringIcSt11char_traitsIcESaIcEEaSEOS4_(ptr noundef nonnull align 8 dereferenceable(32) %13, ptr noundef nonnull align 8 dereferenceable(32) %3) #5
  call void @_ZNSt7__cxx1112basic_stringIcSt11char_traitsIcESaIcEED1Ev(ptr noundef nonnull align 8 dereferenceable(32) %3) #5
  br label %15

15:                                               ; preds = %12, %1
  ret void
}

; Function Attrs: mustprogress nounwind uwtable
define internal void @_ZN32pxrInternal_v0_24__pxrReserved__12_GLOBAL__N_111_ClearErrorEv() #4 {
  %1 = call ptr @__errno_location() #14
  store i32 0, ptr %1, align 4
  ret void
}

; Function Attrs: mustprogress uwtable
define internal noundef zeroext i1 @_ZZN32pxrInternal_v0_24__pxrReserved__29TfFindLongestAccessiblePrefixERKNSt7__cxx1112basic_stringIcSt11char_traitsIcESaIcEEEPS5_EN6_Local10AccessibleES7_mS8_(ptr noundef nonnull align 8 dereferenceable(32) %0, i64 noundef %1, ptr noundef %2) #0 align 2 personality ptr @__gxx_personality_v0 {
  %4 = alloca i1, align 1
  %5 = alloca ptr, align 8
  %6 = alloca i64, align 8
  %7 = alloca ptr, align 8
  %8 = alloca %"class.std::__cxx11::basic_string", align 8
  %9 = alloca ptr, align 8
  %10 = alloca i32, align 4
  %11 = alloca i32, align 4
  store ptr %0, ptr %5, align 8
  store i64 %1, ptr %6, align 8
  store ptr %2, ptr %7, align 8
  %12 = load ptr, ptr %5, align 8
  %13 = load i64, ptr %6, align 8
  call void @_ZNSt7__cxx1112basic_stringIcSt11char_traitsIcESaIcEEC1ERKS4_mm(ptr noundef nonnull align 8 dereferenceable(32) %8, ptr noundef nonnull align 8 dereferenceable(32) %12, i64 noundef 0, i64 noundef %13)
  invoke void @_ZN32pxrInternal_v0_24__pxrReserved__12_GLOBAL__N_111_ClearErrorEv()
          to label %14 unwind label %20

14:                                               ; preds = %3
  %15 = invoke noundef zeroext i1 @_ZN32pxrInternal_v0_24__pxrReserved__12TfPathExistsERKNSt7__cxx1112basic_stringIcSt11char_traitsIcESaIcEEEb(ptr noundef nonnull align 8 dereferenceable(32) %8, i1 noundef zeroext false)
          to label %16 unwind label %20

16:                                               ; preds = %14
  br i1 %15, label %24, label %17

17:                                               ; preds = %16
  %18 = load ptr, ptr %7, align 8
  invoke void @_ZN32pxrInternal_v0_24__pxrReserved__12_GLOBAL__N_19_GetErrorEPNSt7__cxx1112basic_stringIcSt11char_traitsIcESaIcEEE(ptr noundef %18)
          to label %19 unwind label %20

19:                                               ; preds = %17
  store i1 false, ptr %4, align 1
  store i32 1, ptr %11, align 4
  br label %46

20:                                               ; preds = %40, %35, %30, %27, %24, %17, %14, %3
  %21 = landingpad { ptr, i32 }
          cleanup
  %22 = extractvalue { ptr, i32 } %21, 0
  store ptr %22, ptr %9, align 8
  %23 = extractvalue { ptr, i32 } %21, 1
  store i32 %23, ptr %10, align 4
  call void @_ZNSt7__cxx1112basic_stringIcSt11char_traitsIcESaIcEED1Ev(ptr noundef nonnull align 8 dereferenceable(32) %8) #5
  br label %48

24:                                               ; preds = %16
  %25 = invoke noundef zeroext i1 @_ZN32pxrInternal_v0_24__pxrReserved__8TfIsLinkERKNSt7__cxx1112basic_stringIcSt11char_traitsIcESaIcEEE(ptr noundef nonnull align 8 dereferenceable(32) %8)
          to label %26 unwind label %20

26:                                               ; preds = %24
  br i1 %25, label %27, label %40

27:                                               ; preds = %26
  %28 = invoke noundef zeroext i1 @_ZN32pxrInternal_v0_24__pxrReserved__12TfPathExistsERKNSt7__cxx1112basic_stringIcSt11char_traitsIcESaIcEEEb(ptr noundef nonnull align 8 dereferenceable(32) %8, i1 noundef zeroext true)
          to label %29 unwind label %20

29:                                               ; preds = %27
  br i1 %28, label %40, label %30

30:                                               ; preds = %29
  %31 = load ptr, ptr %7, align 8
  invoke void @_ZN32pxrInternal_v0_24__pxrReserved__12_GLOBAL__N_19_GetErrorEPNSt7__cxx1112basic_stringIcSt11char_traitsIcESaIcEEE(ptr noundef %31)
          to label %32 unwind label %20

32:                                               ; preds = %30
  %33 = load ptr, ptr %7, align 8
  %34 = call noundef zeroext i1 @_ZNKSt7__cxx1112basic_stringIcSt11char_traitsIcESaIcEE5emptyEv(ptr noundef nonnull align 8 dereferenceable(32) %33) #5
  br i1 %34, label %35, label %39

35:                                               ; preds = %32
  %36 = load ptr, ptr %7, align 8
  %37 = invoke noundef nonnull align 8 dereferenceable(32) ptr @_ZNSt7__cxx1112basic_stringIcSt11char_traitsIcESaIcEEaSEPKc(ptr noundef nonnull align 8 dereferenceable(32) %36, ptr noundef @.str)
          to label %38 unwind label %20

38:                                               ; preds = %35
  br label %39

39:                                               ; preds = %38, %32
  br label %43

40:                                               ; preds = %29, %26
  %41 = load ptr, ptr %7, align 8
  invoke void @_ZN32pxrInternal_v0_24__pxrReserved__12_GLOBAL__N_19_GetErrorEPNSt7__cxx1112basic_stringIcSt11char_traitsIcESaIcEEE(ptr noundef %41)
          to label %42 unwind label %20

42:                                               ; preds = %40
  br label %43

43:                                               ; preds = %42, %39
  %44 = load ptr, ptr %7, align 8
  %45 = call noundef zeroext i1 @_ZNKSt7__cxx1112basic_stringIcSt11char_traitsIcESaIcEE5emptyEv(ptr noundef nonnull align 8 dereferenceable(32) %44) #5
  store i1 %45, ptr %4, align 1
  store i32 1, ptr %11, align 4
  br label %46

46:                                               ; preds = %43, %19
  call void @_ZNSt7__cxx1112basic_stringIcSt11char_traitsIcESaIcEED1Ev(ptr noundef nonnull align 8 dereferenceable(32) %8) #5
  %47 = load i1, ptr %4, align 1
  ret i1 %47

48:                                               ; preds = %20
  %49 = load ptr, ptr %9, align 8
  %50 = load i32, ptr %10, align 4
  %51 = insertvalue { ptr, i32 } poison, ptr %49, 0
  %52 = insertvalue { ptr, i32 } %51, i32 %50, 1
  resume { ptr, i32 } %52
}