; Function Attrs: mustprogress uwtable
define internal fastcc noundef zeroext i1 @_ZZN32pxrInternal_v0_24__pxrReserved__29TfFindLongestAccessiblePrefixERKNSt7__cxx1112basic_stringIcSt11char_traitsIcESaIcEEEPS5_EN6_Local10AccessibleES7_mS8_(ptr noundef nonnull align 8 dereferenceable(32) %0, i64 noundef %1, ptr noundef %2) unnamed_addr #0 align 2 personality ptr @__gxx_personality_v0 {
  %4 = alloca %"class.std::__cxx11::basic_string", align 8
  %5 = alloca %"class.std::__cxx11::basic_string", align 8
  %6 = alloca %"class.std::__cxx11::basic_string", align 8
  %7 = alloca %"class.std::__cxx11::basic_string", align 8
  call void @_ZNSt7__cxx1112basic_stringIcSt11char_traitsIcESaIcEEC1ERKS4_mm(ptr noundef nonnull align 8 dereferenceable(32) %7, ptr noundef nonnull align 8 dereferenceable(32) %0, i64 noundef 0, i64 noundef %1)
  %8 = tail call ptr @__errno_location() #19
  store i32 0, ptr %8, align 4
  %9 = invoke noundef zeroext i1 @_ZN32pxrInternal_v0_24__pxrReserved__12TfPathExistsERKNSt7__cxx1112basic_stringIcSt11char_traitsIcESaIcEEEb(ptr noundef nonnull align 8 dereferenceable(32) %7, i1 noundef zeroext false)
          to label %10 unwind label %18

10:                                               ; preds = %3
  br i1 %9, label %20, label %11

11:                                               ; preds = %10
  call void @llvm.lifetime.start.p0(i64 32, ptr nonnull %6)
  %12 = call noundef zeroext i1 @_ZNKSt7__cxx1112basic_stringIcSt11char_traitsIcESaIcEE5emptyEv(ptr noundef nonnull align 8 dereferenceable(32) %2) #18
  br i1 %12, label %13, label %_ZN32pxrInternal_v0_24__pxrReserved__12_GLOBAL__N_19_GetErrorEPNSt7__cxx1112basic_stringIcSt11char_traitsIcESaIcEEE.exit

13:                                               ; preds = %11
  %14 = load i32, ptr %8, align 4
  %.not.i = icmp eq i32 %14, 0
  br i1 %.not.i, label %16, label %15

15:                                               ; preds = %13
  invoke void @_ZN32pxrInternal_v0_24__pxrReserved__12ArchStrerrorB5cxx11Ev(ptr dead_on_unwind nonnull writable sret(%"class.std::__cxx11::basic_string") align 8 %6)
          to label %.noexc unwind label %18

16:                                               ; preds = %13
  call void @_ZNSt7__cxx1112basic_stringIcSt11char_traitsIcESaIcEEC1Ev(ptr noundef nonnull align 8 dereferenceable(32) %6) #18
  br label %.noexc

.noexc:                                           ; preds = %15, %16
  %17 = call noundef nonnull align 8 dereferenceable(32) ptr @_ZNSt7__cxx1112basic_stringIcSt11char_traitsIcESaIcEEaSEOS4_(ptr noundef nonnull align 8 dereferenceable(32) %2, ptr noundef nonnull align 8 dereferenceable(32) %6) #18
  call void @_ZNSt7__cxx1112basic_stringIcSt11char_traitsIcESaIcEED1Ev(ptr noundef nonnull align 8 dereferenceable(32) %6) #18
  br label %_ZN32pxrInternal_v0_24__pxrReserved__12_GLOBAL__N_19_GetErrorEPNSt7__cxx1112basic_stringIcSt11char_traitsIcESaIcEEE.exit

_ZN32pxrInternal_v0_24__pxrReserved__12_GLOBAL__N_19_GetErrorEPNSt7__cxx1112basic_stringIcSt11char_traitsIcESaIcEEE.exit: ; preds = %11, %.noexc
  call void @llvm.lifetime.end.p0(i64 32, ptr nonnull %6)
  br label %46

18:                                               ; preds = %41, %30, %15, %35, %23, %20, %3
  %19 = landingpad { ptr, i32 }
          cleanup
  call void @_ZNSt7__cxx1112basic_stringIcSt11char_traitsIcESaIcEED1Ev(ptr noundef nonnull align 8 dereferenceable(32) %7) #18
  resume { ptr, i32 } %19

20:                                               ; preds = %10
  %21 = invoke noundef zeroext i1 @_ZN32pxrInternal_v0_24__pxrReserved__8TfIsLinkERKNSt7__cxx1112basic_stringIcSt11char_traitsIcESaIcEEE(ptr noundef nonnull align 8 dereferenceable(32) %7)
          to label %22 unwind label %18

22:                                               ; preds = %20
  br i1 %21, label %23, label %37

23:                                               ; preds = %22
  %24 = invoke noundef zeroext i1 @_ZN32pxrInternal_v0_24__pxrReserved__12TfPathExistsERKNSt7__cxx1112basic_stringIcSt11char_traitsIcESaIcEEEb(ptr noundef nonnull align 8 dereferenceable(32) %7, i1 noundef zeroext true)
          to label %25 unwind label %18

25:                                               ; preds = %23
  br i1 %24, label %37, label %26

26:                                               ; preds = %25
  call void @llvm.lifetime.start.p0(i64 32, ptr nonnull %5)
  %27 = call noundef zeroext i1 @_ZNKSt7__cxx1112basic_stringIcSt11char_traitsIcESaIcEE5emptyEv(ptr noundef nonnull align 8 dereferenceable(32) %2) #18
  br i1 %27, label %28, label %33

28:                                               ; preds = %26
  %29 = load i32, ptr %8, align 4
  %.not.i10 = icmp eq i32 %29, 0
  br i1 %.not.i10, label %31, label %30

30:                                               ; preds = %28
  invoke void @_ZN32pxrInternal_v0_24__pxrReserved__12ArchStrerrorB5cxx11Ev(ptr dead_on_unwind nonnull writable sret(%"class.std::__cxx11::basic_string") align 8 %5)
          to label %.noexc11 unwind label %18

31:                                               ; preds = %28
  call void @_ZNSt7__cxx1112basic_stringIcSt11char_traitsIcESaIcEEC1Ev(ptr noundef nonnull align 8 dereferenceable(32) %5) #18
  br label %.noexc11

.noexc11:                                         ; preds = %30, %31
  %32 = call noundef nonnull align 8 dereferenceable(32) ptr @_ZNSt7__cxx1112basic_stringIcSt11char_traitsIcESaIcEEaSEOS4_(ptr noundef nonnull align 8 dereferenceable(32) %2, ptr noundef nonnull align 8 dereferenceable(32) %5) #18
  call void @_ZNSt7__cxx1112basic_stringIcSt11char_traitsIcESaIcEED1Ev(ptr noundef nonnull align 8 dereferenceable(32) %5) #18
  br label %33

33:                                               ; preds = %.noexc11, %26
  call void @llvm.lifetime.end.p0(i64 32, ptr nonnull %5)
  %34 = call noundef zeroext i1 @_ZNKSt7__cxx1112basic_stringIcSt11char_traitsIcESaIcEE5emptyEv(ptr noundef nonnull align 8 dereferenceable(32) %2) #18
  br i1 %34, label %35, label %44

35:                                               ; preds = %33
  %36 = invoke noundef nonnull align 8 dereferenceable(32) ptr @_ZNSt7__cxx1112basic_stringIcSt11char_traitsIcESaIcEEaSEPKc(ptr noundef nonnull align 8 dereferenceable(32) %2, ptr noundef nonnull @.str)
          to label %44 unwind label %18

37:                                               ; preds = %25, %22
  call void @llvm.lifetime.start.p0(i64 32, ptr nonnull %4)
  %38 = call noundef zeroext i1 @_ZNKSt7__cxx1112basic_stringIcSt11char_traitsIcESaIcEE5emptyEv(ptr noundef nonnull align 8 dereferenceable(32) %2) #18
  br i1 %38, label %39, label %_ZN32pxrInternal_v0_24__pxrReserved__12_GLOBAL__N_19_GetErrorEPNSt7__cxx1112basic_stringIcSt11char_traitsIcESaIcEEE.exit15

39:                                               ; preds = %37
  %40 = load i32, ptr %8, align 4
  %.not.i13 = icmp eq i32 %40, 0
  br i1 %.not.i13, label %42, label %41

41:                                               ; preds = %39
  invoke void @_ZN32pxrInternal_v0_24__pxrReserved__12ArchStrerrorB5cxx11Ev(ptr dead_on_unwind nonnull writable sret(%"class.std::__cxx11::basic_string") align 8 %4)
          to label %.noexc14 unwind label %18

42:                                               ; preds = %39
  call void @_ZNSt7__cxx1112basic_stringIcSt11char_traitsIcESaIcEEC1Ev(ptr noundef nonnull align 8 dereferenceable(32) %4) #18
  br label %.noexc14

.noexc14:                                         ; preds = %41, %42
  %43 = call noundef nonnull align 8 dereferenceable(32) ptr @_ZNSt7__cxx1112basic_stringIcSt11char_traitsIcESaIcEEaSEOS4_(ptr noundef nonnull align 8 dereferenceable(32) %2, ptr noundef nonnull align 8 dereferenceable(32) %4) #18
  call void @_ZNSt7__cxx1112basic_stringIcSt11char_traitsIcESaIcEED1Ev(ptr noundef nonnull align 8 dereferenceable(32) %4) #18
  br label %_ZN32pxrInternal_v0_24__pxrReserved__12_GLOBAL__N_19_GetErrorEPNSt7__cxx1112basic_stringIcSt11char_traitsIcESaIcEEE.exit15

_ZN32pxrInternal_v0_24__pxrReserved__12_GLOBAL__N_19_GetErrorEPNSt7__cxx1112basic_stringIcSt11char_traitsIcESaIcEEE.exit15: ; preds = %37, %.noexc14
  call void @llvm.lifetime.end.p0(i64 32, ptr nonnull %4)
  br label %44

44:                                               ; preds = %_ZN32pxrInternal_v0_24__pxrReserved__12_GLOBAL__N_19_GetErrorEPNSt7__cxx1112basic_stringIcSt11char_traitsIcESaIcEEE.exit15, %33, %35
  %45 = call noundef zeroext i1 @_ZNKSt7__cxx1112basic_stringIcSt11char_traitsIcESaIcEE5emptyEv(ptr noundef nonnull align 8 dereferenceable(32) %2) #18
  br label %46

46:                                               ; preds = %_ZN32pxrInternal_v0_24__pxrReserved__12_GLOBAL__N_19_GetErrorEPNSt7__cxx1112basic_stringIcSt11char_traitsIcESaIcEEE.exit, %44
  %.0 = phi i1 [ %45, %44 ], [ false, %_ZN32pxrInternal_v0_24__pxrReserved__12_GLOBAL__N_19_GetErrorEPNSt7__cxx1112basic_stringIcSt11char_traitsIcESaIcEEE.exit ]
  call void @_ZNSt7__cxx1112basic_stringIcSt11char_traitsIcESaIcEED1Ev(ptr noundef nonnull align 8 dereferenceable(32) %7) #18
  ret i1 %.0
}